target datalayout = "e-m:e-p270:32:32-p271:32:32-p272:64:64-i64:64-i128:128-f80:128-n8:16:32:64-S128"
target triple = "x86_64-pc-linux-gnu"

%struct.mbedtls_ecjpake_context = type { i32, %struct.mbedtls_ecp_group, i32, i32, %struct.mbedtls_ecp_point, %struct.mbedtls_ecp_point, %struct.mbedtls_ecp_point, %struct.mbedtls_ecp_point, %struct.mbedtls_ecp_point, %struct.mbedtls_mpi, %struct.mbedtls_mpi, %struct.mbedtls_mpi }
%struct.mbedtls_ecp_group = type { i32, %struct.mbedtls_mpi, %struct.mbedtls_mpi, %struct.mbedtls_mpi, %struct.mbedtls_ecp_point, %struct.mbedtls_mpi, i64, i64, i32, ptr, ptr, ptr, ptr, ptr, i64 }
%struct.mbedtls_ecp_point = type { %struct.mbedtls_mpi, %struct.mbedtls_mpi, %struct.mbedtls_mpi }
%struct.mbedtls_mpi = type { ptr, i16, i16 }

; Function Attrs: nounwind uwtable
define internal i32 @mbedtls_ecjpake_compute_hash(i32 noundef %0, ptr noundef %1, i64 noundef %2, ptr noundef %3) #0 {
  %5 = alloca i32, align 4
  %6 = alloca ptr, align 8
  %7 = alloca i64, align 8
  %8 = alloca ptr, align 8
  store i32 %0, ptr %5, align 4, !tbaa !19
  store ptr %1, ptr %6, align 8, !tbaa !20
  store i64 %2, ptr %7, align 8, !tbaa !22
  store ptr %3, ptr %8, align 8, !tbaa !20
  %9 = load i32, ptr %5, align 4, !tbaa !19
  %10 = call ptr @mbedtls_md_info_from_type(i32 noundef %9)
  %11 = load ptr, ptr %6, align 8, !tbaa !20
  %12 = load i64, ptr %7, align 8, !tbaa !22
  %13 = load ptr, ptr %8, align 8, !tbaa !20
  %14 = call i32 @mbedtls_md(ptr noundef %10, ptr noundef %11, i64 noundef %12, ptr noundef %13)
  ret i32 %14
}

; Function Attrs: inlinehint nounwind uwtable
define internal zeroext i8 @mbedtls_md_get_size_from_type(i32 noundef %0) #3 {
  %2 = alloca i32, align 4
  store i32 %0, ptr %2, align 4, !tbaa !19
  %3 = load i32, ptr %2, align 4, !tbaa !19
  %4 = call ptr @mbedtls_md_info_from_type(i32 noundef %3)
  %5 = call zeroext i8 @mbedtls_md_get_size(ptr noundef %4)
  ret i8 %5
}

; Function Attrs: nounwind uwtable
define hidden i32 @mbedtls_ecjpake_derive_secret(ptr noundef %0, ptr noundef %1, i64 noundef %2, ptr noundef %3, ptr noundef %4, ptr noundef %5) #0 {
  %7 = alloca i32, align 4
  %8 = alloca ptr, align 8
  %9 = alloca ptr, align 8
  %10 = alloca i64, align 8
  %11 = alloca ptr, align 8
  %12 = alloca ptr, align 8
  %13 = alloca ptr, align 8
  %14 = alloca i32, align 4
  %15 = alloca %struct.mbedtls_ecp_point, align 8
  %16 = alloca [66 x i8], align 16
  %17 = alloca i64, align 8
  %18 = alloca i32, align 4
  store ptr %0, ptr %8, align 8, !tbaa !3
  store ptr %1, ptr %9, align 8, !tbaa !20
  store i64 %2, ptr %10, align 8, !tbaa !22
  store ptr %3, ptr %11, align 8, !tbaa !29
  store ptr %4, ptr %12, align 8, !tbaa !30
  store ptr %5, ptr %13, align 8, !tbaa !30
  call void @llvm.lifetime.start.p0(i64 4, ptr %14) #9
  store i32 -110, ptr %14, align 4, !tbaa !19
  call void @llvm.lifetime.start.p0(i64 48, ptr %15) #9
  call void @llvm.lifetime.start.p0(i64 66, ptr %16) #9
  call void @llvm.lifetime.start.p0(i64 8, ptr %17) #9
  %19 = load ptr, ptr %8, align 8, !tbaa !3
  %20 = getelementptr inbounds nuw %struct.mbedtls_ecjpake_context, ptr %19, i32 0, i32 0
  %21 = load i32, ptr %20, align 8, !tbaa !8
  %22 = call zeroext i8 @mbedtls_md_get_size_from_type(i32 noundef %21)
  %23 = zext i8 %22 to i64
  %24 = load ptr, ptr %11, align 8, !tbaa !29
  store i64 %23, ptr %24, align 8, !tbaa !22
  %25 = load i64, ptr %10, align 8, !tbaa !22
  %26 = load ptr, ptr %11, align 8, !tbaa !29
  %27 = load i64, ptr %26, align 8, !tbaa !22
  %28 = icmp ult i64 %25, %27
  br i1 %28, label %29, label %30

29:                                               ; preds = %6
  store i32 -20224, ptr %7, align 4
  store i32 1, ptr %18, align 4
  br label %70

30:                                               ; preds = %6
  call void @mbedtls_ecp_point_init(ptr noundef %15)
  %31 = load ptr, ptr %8, align 8, !tbaa !3
  %32 = load ptr, ptr %12, align 8, !tbaa !30
  %33 = load ptr, ptr %13, align 8, !tbaa !30
  %34 = call i32 @mbedtls_ecjpake_derive_k(ptr noundef %31, ptr noundef %15, ptr noundef %32, ptr noundef %33)
  store i32 %34, ptr %14, align 4, !tbaa !19
  %35 = load i32, ptr %14, align 4, !tbaa !19
  %36 = icmp ne i32 %35, 0
  br i1 %36, label %37, label %38

37:                                               ; preds = %30
  br label %68

38:                                               ; preds = %30
  %39 = load ptr, ptr %8, align 8, !tbaa !3
  %40 = getelementptr inbounds nuw %struct.mbedtls_ecjpake_context, ptr %39, i32 0, i32 1
  %41 = getelementptr inbounds nuw %struct.mbedtls_ecp_group, ptr %40, i32 0, i32 6
  %42 = load i64, ptr %41, align 8, !tbaa !39
  %43 = add i64 %42, 7
  %44 = udiv i64 %43, 8
  store i64 %44, ptr %17, align 8, !tbaa !22
  br label %45

45:                                               ; preds = %38
  %46 = getelementptr inbounds nuw %struct.mbedtls_ecp_point, ptr %15, i32 0, i32 0
  %47 = getelementptr inbounds [66 x i8], ptr %16, i64 0, i64 0
  %48 = load i64, ptr %17, align 8, !tbaa !22
  %49 = call i32 @mbedtls_mpi_write_binary(ptr noundef %46, ptr noundef %47, i64 noundef %48)
  store i32 %49, ptr %14, align 4, !tbaa !19
  %50 = icmp ne i32 %49, 0
  br i1 %50, label %51, label %52

51:                                               ; preds = %45
  br label %68

52:                                               ; preds = %45
  br label %53

53:                                               ; preds = %52
  br label %54

54:                                               ; preds = %53
  br label %55

55:                                               ; preds = %54
  %56 = load ptr, ptr %8, align 8, !tbaa !3
  %57 = getelementptr inbounds nuw %struct.mbedtls_ecjpake_context, ptr %56, i32 0, i32 0
  %58 = load i32, ptr %57, align 8, !tbaa !8
  %59 = getelementptr inbounds [66 x i8], ptr %16, i64 0, i64 0
  %60 = load i64, ptr %17, align 8, !tbaa !22
  %61 = load ptr, ptr %9, align 8, !tbaa !20
  %62 = call i32 @mbedtls_ecjpake_compute_hash(i32 noundef %58, ptr noundef %59, i64 noundef %60, ptr noundef %61)
  store i32 %62, ptr %14, align 4, !tbaa !19
  %63 = icmp ne i32 %62, 0
  br i1 %63, label %64, label %65

64:                                               ; preds = %55
  br label %68

65:                                               ; preds = %55
  br label %66

66:                                               ; preds = %65
  br label %67

67:                                               ; preds = %66
  br label %68

68:                                               ; preds = %67, %64, %51, %37
  call void @mbedtls_ecp_point_free(ptr noundef %15)
  %69 = load i32, ptr %14, align 4, !tbaa !19
  store i32 %69, ptr %7, align 4
  store i32 1, ptr %18, align 4
  br label %70

70:                                               ; preds = %68, %29
  call void @llvm.lifetime.end.p0(i64 8, ptr %17) #9
  call void @llvm.lifetime.end.p0(i64 66, ptr %16) #9
  call void @llvm.lifetime.end.p0(i64 48, ptr %15) #9
  call void @llvm.lifetime.end.p0(i64 4, ptr %14) #9
  %71 = load i32, ptr %7, align 4
  ret i32 %71
}