; Function Attrs: nounwind uwtable
define hidden i32 @mbedtls_ecjpake_derive_secret(ptr noundef %0, ptr noundef %1, i64 noundef %2, ptr noundef writeonly captures(none) initializes((0, 8)) %3, ptr noundef %4, ptr noundef %5) local_unnamed_addr #0 {
  %7 = alloca %struct.mbedtls_ecp_point, align 8
  %8 = alloca [66 x i8], align 16
  call void @llvm.lifetime.start.p0(i64 48, ptr nonnull %7) #15
  call void @llvm.lifetime.start.p0(i64 66, ptr nonnull %8) #15
  %9 = load i32, ptr %0, align 8, !tbaa !3
  %10 = tail call ptr @mbedtls_md_info_from_type(i32 noundef %9) #15
  %11 = tail call zeroext i8 @mbedtls_md_get_size(ptr noundef %10) #15
  %12 = zext i8 %11 to i64
  store i64 %12, ptr %3, align 8, !tbaa !22
  %13 = icmp ult i64 %2, %12
  br i1 %13, label %27, label %14

14:                                               ; preds = %6
  call void @mbedtls_ecp_point_init(ptr noundef nonnull %7) #15
  %15 = call fastcc i32 @mbedtls_ecjpake_derive_k(ptr noundef nonnull %0, ptr noundef %7, ptr noundef %4, ptr noundef %5)
  %.not = icmp eq i32 %15, 0
  br i1 %.not, label %16, label %26

16:                                               ; preds = %14
  %17 = getelementptr inbounds nuw i8, ptr %0, i64 128
  %18 = load i64, ptr %17, align 8, !tbaa !26
  %19 = add i64 %18, 7
  %20 = lshr i64 %19, 3
  %21 = call i32 @mbedtls_mpi_write_binary(ptr noundef nonnull %7, ptr noundef nonnull %8, i64 noundef %20) #15
  %.not17 = icmp eq i32 %21, 0
  br i1 %.not17, label %22, label %26

22:                                               ; preds = %16
  %23 = load i32, ptr %0, align 8, !tbaa !3
  %24 = call ptr @mbedtls_md_info_from_type(i32 noundef %23) #15
  %25 = call i32 @mbedtls_md(ptr noundef %24, ptr noundef nonnull %8, i64 noundef %20, ptr noundef %1) #15
  br label %26

26:                                               ; preds = %22, %16, %14
  %.014 = phi i32 [ %15, %14 ], [ %21, %16 ], [ %25, %22 ]
  call void @mbedtls_ecp_point_free(ptr noundef nonnull %7) #15
  br label %27

27:                                               ; preds = %6, %26
  %.0 = phi i32 [ %.014, %26 ], [ -20224, %6 ]
  call void @llvm.lifetime.end.p0(i64 66, ptr nonnull %8) #15
  call void @llvm.lifetime.end.p0(i64 48, ptr nonnull %7) #15
  ret i32 %.0
}